target datalayout = "e-m:e-p270:32:32-p271:32:32-p272:64:64-i64:64-i128:128-f80:128-n8:16:32:64-S128"
target triple = "x86_64-pc-linux-gnu"

%struct.DecodedCert = type { ptr, i32, i32, i32, i32, i32, i32, i32, i32, i32, i32, ptr, ptr, ptr, ptr, ptr, [20 x i8], [20 x i8], ptr, ptr, i32, i8, [256 x i8], [256 x i8], i32, ptr, i32, i32, ptr, [32 x i8], i32, ptr, i32, i32, ptr, i32, ptr, i32, ptr, i32, [20 x i8], i32, [20 x i8], i32, i8, i8, i8, i16, i8, i32, ptr, i32, ptr, i32, ptr, i32, ptr, i32, i8, ptr, %struct.SignatureCtx, i32, i32, i32 }
%struct.SignatureCtx = type { ptr, ptr, ptr, ptr, i32, %union.anon.4, i32, i32, i32, i32, i32, i32, i32, i32 }
%union.anon.4 = type { ptr }

; Function Attrs: nounwind uwtable
define i32 @wc_GetPubX509(ptr noundef %0, i32 noundef %1, ptr noundef %2) #0 {
  %4 = alloca ptr, align 8
  %5 = alloca i32, align 4
  %6 = alloca ptr, align 8
  %7 = alloca i32, align 4
  store ptr %0, ptr %4, align 8, !tbaa !80
  store i32 %1, ptr %5, align 4, !tbaa !3
  store ptr %2, ptr %6, align 8, !tbaa !18
  call void @llvm.lifetime.start.p0(i64 4, ptr %7) #9
  %8 = load ptr, ptr %6, align 8, !tbaa !18
  store i32 0, ptr %8, align 4, !tbaa !3
  %9 = load ptr, ptr %4, align 8, !tbaa !80
  %10 = load i32, ptr %5, align 4, !tbaa !3
  %11 = load ptr, ptr %6, align 8, !tbaa !18
  %12 = call i32 @DecodeCertInternal(ptr noundef %9, i32 noundef %10, ptr noundef null, ptr noundef %11, i32 noundef 1, i32 noundef 0)
  store i32 %12, ptr %7, align 4, !tbaa !3
  %13 = load i32, ptr %7, align 4, !tbaa !3
  %14 = icmp sge i32 %13, 0
  br i1 %14, label %15, label %19

15:                                               ; preds = %3
  %16 = load i32, ptr %7, align 4, !tbaa !3
  %17 = load ptr, ptr %4, align 8, !tbaa !80
  %18 = getelementptr inbounds nuw %struct.DecodedCert, ptr %17, i32 0, i32 26
  store i32 %16, ptr %18, align 8, !tbaa !134
  br label %19

19:                                               ; preds = %15, %3
  %20 = load i32, ptr %7, align 4, !tbaa !3
  call void @llvm.lifetime.end.p0(i64 4, ptr %7) #9
  ret i32 %20
}