; Function Attrs: nounwind uwtable
define i32 @wc_GetPubX509(ptr noundef %0, i32 noundef %1, ptr noundef captures(address_is_null) initializes((0, 4)) %2) local_unnamed_addr #2 {
  store i32 0, ptr %2, align 4, !tbaa !22
  %4 = tail call fastcc i32 @DecodeCertInternal(ptr noundef %0, i32 noundef %1, ptr noundef null, ptr noundef nonnull %2, i32 noundef 1, i32 noundef 0)
  %5 = icmp sgt i32 %4, -1
  br i1 %5, label %6, label %8

6:                                                ; preds = %3
  %7 = getelementptr inbounds nuw i8, ptr %0, i64 680
  store i32 %4, ptr %7, align 8, !tbaa !106
  br label %8

8:                                                ; preds = %6, %3
  ret i32 %4
}